; ModuleID = 'source-C-CXX/3/584.cpp'
source_filename = "source-C-CXX/3/584.cpp"
target datalayout = "e-m:e-p270:32:32-p271:32:32-p272:64:64-i64:64-f80:128-n8:16:32:64-S128"
target triple = "x86_64-pc-linux-gnu"

%"class.std::ios_base::Init" = type { i8 }
%"class.std::basic_ostream" = type { i32 (...)**, %"class.std::basic_ios" }
%"class.std::basic_ios" = type { %"class.std::ios_base", %"class.std::basic_ostream"*, i8, i8, %"class.std::basic_streambuf"*, %"class.std::ctype"*, %"class.std::num_put"*, %"class.std::num_get"* }
%"class.std::ios_base" = type { i32 (...)**, i64, i64, i32, i32, i32, %"struct.std::ios_base::_Callback_list"*, %"struct.std::ios_base::_Words", [8 x %"struct.std::ios_base::_Words"], i32, %"struct.std::ios_base::_Words"*, %"class.std::locale" }
%"struct.std::ios_base::_Callback_list" = type { %"struct.std::ios_base::_Callback_list"*, void (i32, %"class.std::ios_base"*, i32)*, i32, i32 }
%"struct.std::ios_base::_Words" = type { i8*, i64 }
%"class.std::locale" = type { %"class.std::locale::_Impl"* }
%"class.std::locale::_Impl" = type { i32, %"class.std::locale::facet"**, i64, %"class.std::locale::facet"**, i8** }
%"class.std::locale::facet" = type <{ i32 (...)**, i32, [4 x i8] }>
%"class.std::basic_streambuf" = type { i32 (...)**, i8*, i8*, i8*, i8*, i8*, i8*, %"class.std::locale" }
%"class.std::ctype" = type <{ %"class.std::locale::facet.base", [4 x i8], %struct.__locale_struct*, i8, [7 x i8], i32*, i32*, i16*, i8, [256 x i8], [256 x i8], i8, [6 x i8] }>
%"class.std::locale::facet.base" = type <{ i32 (...)**, i32 }>
%struct.__locale_struct = type { [13 x %struct.__locale_data*], i16*, i32*, i32*, [13 x i8*] }
%struct.__locale_data = type opaque
%"class.std::num_put" = type { %"class.std::locale::facet.base", [4 x i8] }
%"class.std::num_get" = type { %"class.std::locale::facet.base", [4 x i8] }
%"class.std::basic_istream" = type { i32 (...)**, i64, %"class.std::basic_ios" }

@_ZStL8__ioinit = internal global %"class.std::ios_base::Init" zeroinitializer, align 1
@__dso_handle = external hidden global i8
@m = dso_local global i32 0, align 4
@n = dso_local global i32 0, align 4
@k = dso_local global [100 x [100 x i32]] zeroinitializer, align 16
@_ZSt4cout = external global %"class.std::basic_ostream", align 8
@_ZSt3cin = external global %"class.std::basic_istream", align 8
@llvm.global_ctors = appending global [1 x { i32, void ()*, i8* }] [{ i32, void ()*, i8* } { i32 65535, void ()* @_GLOBAL__sub_I_584.cpp, i8* null }]

declare void @_ZNSt8ios_base4InitC1Ev(%"class.std::ios_base::Init"* nonnull align 1 dereferenceable(1)) unnamed_addr #0

; Function Attrs: nounwind
declare void @_ZNSt8ios_base4InitD1Ev(%"class.std::ios_base::Init"* nonnull align 1 dereferenceable(1)) unnamed_addr #1

; Function Attrs: nofree nounwind
declare i32 @__cxa_atexit(void (i8*)*, i8*, i8*) local_unnamed_addr #2

; Function Attrs: mustprogress sspstrong uwtable
define dso_local void @_Z7displayii(i32 %0, i32 %1) local_unnamed_addr #3 {
  %3 = load i32, i32* @m, align 4, !tbaa !5
  %4 = icmp sgt i32 %3, %0
  br i1 %4, label %5, label %55

5:                                                ; preds = %2
  %6 = zext i32 %0 to i64
  %7 = icmp slt i32 %0, 0
  br label %8

8:                                                ; preds = %5, %46
  %9 = phi i64 [ %6, %5 ], [ %50, %46 ]
  %10 = phi i32 [ %1, %5 ], [ %51, %46 ]
  %11 = load i32, i32* @n, align 4, !tbaa !5
  %12 = icmp sle i32 %11, %10
  %13 = select i1 %12, i1 true, i1 %7
  %14 = icmp slt i32 %10, 0
  %15 = or i1 %14, %13
  br i1 %15, label %55, label %16

16:                                               ; preds = %8
  %17 = zext i32 %10 to i64
  %18 = getelementptr inbounds [100 x [100 x i32]], [100 x [100 x i32]]* @k, i64 0, i64 %9, i64 %17
  %19 = load i32, i32* %18, align 4, !tbaa !5
  %20 = tail call nonnull align 8 dereferenceable(8) %"class.std::basic_ostream"* @_ZNSolsEi(%"class.std::basic_ostream"* nonnull align 8 dereferenceable(8) @_ZSt4cout, i32 %19)
  %21 = bitcast %"class.std::basic_ostream"* %20 to i8**
  %22 = load i8*, i8** %21, align 8, !tbaa !9
  %23 = getelementptr i8, i8* %22, i64 -24
  %24 = bitcast i8* %23 to i64*
  %25 = load i64, i64* %24, align 8
  %26 = bitcast %"class.std::basic_ostream"* %20 to i8*
  %27 = add nsw i64 %25, 240
  %28 = getelementptr inbounds i8, i8* %26, i64 %27
  %29 = bitcast i8* %28 to %"class.std::ctype"**
  %30 = load %"class.std::ctype"*, %"class.std::ctype"** %29, align 8, !tbaa !11
  %31 = icmp eq %"class.std::ctype"* %30, null
  br i1 %31, label %32, label %33

32:                                               ; preds = %16
  tail call void @_ZSt16__throw_bad_castv() #7
  unreachable

33:                                               ; preds = %16
  %34 = getelementptr inbounds %"class.std::ctype", %"class.std::ctype"* %30, i64 0, i32 8
  %35 = load i8, i8* %34, align 8, !tbaa !15
  %36 = icmp eq i8 %35, 0
  br i1 %36, label %40, label %37

37:                                               ; preds = %33
  %38 = getelementptr inbounds %"class.std::ctype", %"class.std::ctype"* %30, i64 0, i32 9, i64 10
  %39 = load i8, i8* %38, align 1, !tbaa !17
  br label %46

40:                                               ; preds = %33
  tail call void @_ZNKSt5ctypeIcE13_M_widen_initEv(%"class.std::ctype"* nonnull align 8 dereferenceable(570) %30)
  %41 = bitcast %"class.std::ctype"* %30 to i8 (%"class.std::ctype"*, i8)***
  %42 = load i8 (%"class.std::ctype"*, i8)**, i8 (%"class.std::ctype"*, i8)*** %41, align 8, !tbaa !9
  %43 = getelementptr inbounds i8 (%"class.std::ctype"*, i8)*, i8 (%"class.std::ctype"*, i8)** %42, i64 6
  %44 = load i8 (%"class.std::ctype"*, i8)*, i8 (%"class.std::ctype"*, i8)** %43, align 8
  %45 = tail call signext i8 %44(%"class.std::ctype"* nonnull align 8 dereferenceable(570) %30, i8 signext 10)
  br label %46

46:                                               ; preds = %37, %40
  %47 = phi i8 [ %39, %37 ], [ %45, %40 ]
  %48 = tail call nonnull align 8 dereferenceable(8) %"class.std::basic_ostream"* @_ZNSo3putEc(%"class.std::basic_ostream"* nonnull align 8 dereferenceable(8) %20, i8 signext %47)
  %49 = tail call nonnull align 8 dereferenceable(8) %"class.std::basic_ostream"* @_ZNSo5flushEv(%"class.std::basic_ostream"* nonnull align 8 dereferenceable(8) %48)
  %50 = add nuw nsw i64 %9, 1
  %51 = add nsw i32 %10, -1
  %52 = load i32, i32* @m, align 4, !tbaa !5
  %53 = trunc i64 %50 to i32
  %54 = icmp sgt i32 %52, %53
  br i1 %54, label %8, label %55

55:                                               ; preds = %8, %46, %2
  ret void
}

declare nonnull align 8 dereferenceable(8) %"class.std::basic_ostream"* @_ZNSolsEi(%"class.std::basic_ostream"* nonnull align 8 dereferenceable(8), i32) local_unnamed_addr #0

; Function Attrs: mustprogress norecurse sspstrong uwtable
define dso_local i32 @main() local_unnamed_addr #4 {
  %1 = tail call nonnull align 8 dereferenceable(16) %"class.std::basic_istream"* @_ZNSirsERi(%"class.std::basic_istream"* nonnull align 8 dereferenceable(16) @_ZSt3cin, i32* nonnull align 4 dereferenceable(4) @m)
  %2 = tail call nonnull align 8 dereferenceable(16) %"class.std::basic_istream"* @_ZNSirsERi(%"class.std::basic_istream"* nonnull align 8 dereferenceable(16) %1, i32* nonnull align 4 dereferenceable(4) @n)
  %3 = load i32, i32* @m, align 4, !tbaa !5
  %4 = icmp sgt i32 %3, 0
  %5 = load i32, i32* @n, align 4, !tbaa !5
  br i1 %4, label %6, label %13

6:                                                ; preds = %0
  %7 = icmp sgt i32 %5, 0
  br i1 %7, label %8, label %35

8:                                                ; preds = %6, %27
  %9 = phi i32 [ %28, %27 ], [ %3, %6 ]
  %10 = phi i32 [ %29, %27 ], [ %5, %6 ]
  %11 = phi i64 [ %30, %27 ], [ 0, %6 ]
  %12 = icmp sgt i32 %10, 0
  br i1 %12, label %17, label %27

13:                                               ; preds = %27, %0
  %14 = phi i32 [ %3, %0 ], [ %28, %27 ]
  %15 = phi i32 [ %5, %0 ], [ %29, %27 ]
  %16 = icmp sgt i32 %15, 0
  br i1 %16, label %43, label %35

17:                                               ; preds = %8, %17
  %18 = phi i64 [ %21, %17 ], [ 0, %8 ]
  %19 = getelementptr inbounds [100 x [100 x i32]], [100 x [100 x i32]]* @k, i64 0, i64 %11, i64 %18
  %20 = tail call nonnull align 8 dereferenceable(16) %"class.std::basic_istream"* @_ZNSirsERi(%"class.std::basic_istream"* nonnull align 8 dereferenceable(16) @_ZSt3cin, i32* nonnull align 4 dereferenceable(4) %19)
  %21 = add nuw nsw i64 %18, 1
  %22 = load i32, i32* @n, align 4, !tbaa !5
  %23 = sext i32 %22 to i64
  %24 = icmp slt i64 %21, %23
  br i1 %24, label %17, label %25, !llvm.loop !18

25:                                               ; preds = %17
  %26 = load i32, i32* @m, align 4, !tbaa !5
  br label %27

27:                                               ; preds = %25, %8
  %28 = phi i32 [ %26, %25 ], [ %9, %8 ]
  %29 = phi i32 [ %22, %25 ], [ %10, %8 ]
  %30 = add nuw nsw i64 %11, 1
  %31 = sext i32 %28 to i64
  %32 = icmp slt i64 %30, %31
  br i1 %32, label %8, label %13, !llvm.loop !20

33:                                               ; preds = %43
  %34 = load i32, i32* @m, align 4, !tbaa !5
  br label %35

35:                                               ; preds = %6, %33, %13
  %36 = phi i32 [ %46, %33 ], [ %15, %13 ], [ %5, %6 ]
  %37 = phi i32 [ %34, %33 ], [ %14, %13 ], [ %3, %6 ]
  %38 = icmp sgt i32 %37, 1
  br i1 %38, label %39, label %55

39:                                               ; preds = %35
  %40 = add nsw i32 %36, -1
  tail call void @_Z7displayii(i32 1, i32 %40)
  %41 = load i32, i32* @m, align 4, !tbaa !5
  %42 = icmp sgt i32 %41, 2
  br i1 %42, label %48, label %55, !llvm.loop !22

43:                                               ; preds = %13, %43
  %44 = phi i32 [ %45, %43 ], [ 0, %13 ]
  tail call void @_Z7displayii(i32 0, i32 %44)
  %45 = add nuw nsw i32 %44, 1
  %46 = load i32, i32* @n, align 4, !tbaa !5
  %47 = icmp slt i32 %45, %46
  br i1 %47, label %43, label %33, !llvm.loop !23

48:                                               ; preds = %39, %48
  %49 = phi i32 [ %52, %48 ], [ 2, %39 ]
  %50 = load i32, i32* @n, align 4, !tbaa !5
  %51 = add nsw i32 %50, -1
  tail call void @_Z7displayii(i32 %49, i32 %51)
  %52 = add nuw nsw i32 %49, 1
  %53 = load i32, i32* @m, align 4, !tbaa !5
  %54 = icmp slt i32 %52, %53
  br i1 %54, label %48, label %55, !llvm.loop !22

55:                                               ; preds = %48, %39, %35
  ret i32 0
}

declare nonnull align 8 dereferenceable(16) %"class.std::basic_istream"* @_ZNSirsERi(%"class.std::basic_istream"* nonnull align 8 dereferenceable(16), i32* nonnull align 4 dereferenceable(4)) local_unnamed_addr #0

declare nonnull align 8 dereferenceable(8) %"class.std::basic_ostream"* @_ZNSo3putEc(%"class.std::basic_ostream"* nonnull align 8 dereferenceable(8), i8 signext) local_unnamed_addr #0

declare nonnull align 8 dereferenceable(8) %"class.std::basic_ostream"* @_ZNSo5flushEv(%"class.std::basic_ostream"* nonnull align 8 dereferenceable(8)) local_unnamed_addr #0

; Function Attrs: noreturn
declare void @_ZSt16__throw_bad_castv() local_unnamed_addr #5

declare void @_ZNKSt5ctypeIcE13_M_widen_initEv(%"class.std::ctype"* nonnull align 8 dereferenceable(570)) local_unnamed_addr #0

; Function Attrs: sspstrong uwtable
define internal void @_GLOBAL__sub_I_584.cpp() #6 section ".text.startup" {
  tail call void @_ZNSt8ios_base4InitC1Ev(%"class.std::ios_base::Init"* nonnull align 1 dereferenceable(1) @_ZStL8__ioinit)
  %1 = tail call i32 @__cxa_atexit(void (i8*)* bitcast (void (%"class.std::ios_base::Init"*)* @_ZNSt8ios_base4InitD1Ev to void (i8*)*), i8* getelementptr inbounds (%"class.std::ios_base::Init", %"class.std::ios_base::Init"* @_ZStL8__ioinit, i64 0, i32 0), i8* nonnull @__dso_handle) #8
  ret void
}


!llvm.module.flags = !{!0, !1, !2, !3}
!llvm.ident = !{!4}

!0 = !{i32 1, !"wchar_size", i32 4}
!1 = !{i32 7, !"PIC Level", i32 2}
!2 = !{i32 7, !"PIE Level", i32 2}
!3 = !{i32 7, !"uwtable", i32 1}
!4 = !{!"clang version 13.0.0"}
!5 = !{!6, !6, i64 0}
!6 = !{!"int", !7, i64 0}
!7 = !{!"omnipotent char", !8, i64 0}
!8 = !{!"Simple C++ TBAA"}
!9 = !{!10, !10, i64 0}
!10 = !{!"vtable pointer", !8, i64 0}
!11 = !{!12, !13, i64 240}
!12 = !{!"_ZTSSt9basic_iosIcSt11char_traitsIcEE", !13, i64 216, !7, i64 224, !14, i64 225, !13, i64 232, !13, i64 240, !13, i64 248, !13, i64 256}
!13 = !{!"any pointer", !7, i64 0}
!14 = !{!"bool", !7, i64 0}
!15 = !{!16, !7, i64 56}
!16 = !{!"_ZTSSt5ctypeIcE", !13, i64 16, !14, i64 24, !13, i64 32, !13, i64 40, !13, i64 48, !7, i64 56, !7, i64 57, !7, i64 313, !7, i64 569}
!17 = !{!7, !7, i64 0}
!18 = distinct !{!18, !19}
!19 = !{!"llvm.loop.mustprogress"}
!20 = distinct !{!20, !19, !21}
!21 = !{!"llvm.loop.unswitch.partial.disable"}
!22 = distinct !{!22, !19}
!23 = distinct !{!23, !19}
